target datalayout = "e-m:e-p270:32:32-p271:32:32-p272:64:64-i64:64-i128:128-f80:128-n8:16:32:64-S128"
target triple = "x86_64-pc-linux-gnu"

%struct._zval_struct = type { %union._zend_value, %union.anon, %union.anon.2 }
%union._zend_value = type { i64 }
%union.anon = type { i32 }
%union.anon.2 = type { i32 }
%struct._spl_pqueue_elem = type { %struct._zval_struct, %struct._zval_struct }

; Function Attrs: nounwind uwtable
define internal i32 @spl_ptr_pqueue_elem_cmp_long(ptr noundef %0, ptr noundef %1, ptr noundef %2) #0 {
  %4 = alloca ptr, align 8
  %5 = alloca ptr, align 8
  %6 = alloca ptr, align 8
  %7 = alloca i64, align 8
  %8 = alloca i64, align 8
  store ptr %0, ptr %4, align 8
  store ptr %1, ptr %5, align 8
  store ptr %2, ptr %6, align 8
  %9 = load ptr, ptr %4, align 8
  %10 = getelementptr inbounds %struct._spl_pqueue_elem, ptr %9, i32 0, i32 1
  %11 = getelementptr inbounds %struct._zval_struct, ptr %10, i32 0, i32 0
  %12 = load i64, ptr %11, align 8
  store i64 %12, ptr %7, align 8
  %13 = load ptr, ptr %5, align 8
  %14 = getelementptr inbounds %struct._spl_pqueue_elem, ptr %13, i32 0, i32 1
  %15 = getelementptr inbounds %struct._zval_struct, ptr %14, i32 0, i32 0
  %16 = load i64, ptr %15, align 8
  store i64 %16, ptr %8, align 8
  %17 = load i64, ptr %7, align 8
  %18 = load i64, ptr %8, align 8
  %19 = icmp sgt i64 %17, %18
  br i1 %19, label %20, label %21

20:                                               ; preds = %3
  br label %26

21:                                               ; preds = %3
  %22 = load i64, ptr %7, align 8
  %23 = load i64, ptr %8, align 8
  %24 = icmp slt i64 %22, %23
  %25 = select i1 %24, i32 -1, i32 0
  br label %26

26:                                               ; preds = %21, %20
  %27 = phi i32 [ 1, %20 ], [ %25, %21 ]
  ret i32 %27
}