; Function Attrs: mustprogress nofree norecurse nosync nounwind willreturn memory(argmem: read) uwtable
define internal i32 @spl_ptr_pqueue_elem_cmp_long(ptr nocapture noundef readonly %0, ptr nocapture noundef readonly %1, ptr nocapture readnone %2) #3 {
  %4 = getelementptr inbounds i8, ptr %0, i64 16
  %5 = load i64, ptr %4, align 8
  %6 = getelementptr inbounds i8, ptr %1, i64 16
  %7 = load i64, ptr %6, align 8
  %8 = icmp sgt i64 %5, %7
  %9 = icmp slt i64 %5, %7
  %10 = sext i1 %9 to i32
  %11 = select i1 %8, i32 1, i32 %10
  ret i32 %11
}